; Function Attrs: mustprogress uwtable
define hidden void @_ZNK7grobner12display_varsERSojPKP4expr(ptr nocapture noundef nonnull readnone align 8 dereferenceable(228) %this, ptr noundef nonnull align 8 dereferenceable(8) %out, i32 noundef %num_vars, ptr nocapture noundef readonly %vars) local_unnamed_addr #3 align 2 {
entry:
  %cmp4.not = icmp eq i32 %num_vars, 0
  br i1 %cmp4.not, label %for.end, label %for.body.preheader

for.body.preheader:                               ; preds = %entry
  %wide.trip.count = zext i32 %num_vars to i64
  br label %for.body

for.body:                                         ; preds = %for.body.preheader, %for.body
  %indvars.iv = phi i64 [ 0, %for.body.preheader ], [ %indvars.iv.next, %for.body ]
  %arrayidx = getelementptr inbounds ptr, ptr %vars, i64 %indvars.iv
  %0 = load ptr, ptr %arrayidx, align 8
  %call.i = tail call noundef nonnull align 8 dereferenceable(8) ptr @_ZStlsISt11char_traitsIcEERSt13basic_ostreamIcT_ES5_PKc(ptr noundef nonnull align 8 dereferenceable(8) %out, ptr noundef nonnull @.str)
  %1 = load i32, ptr %0, align 4
  %call3.i = tail call noundef nonnull align 8 dereferenceable(8) ptr @_ZNSolsEj(ptr noundef nonnull align 8 dereferenceable(8) %call.i, i32 noundef %1)
  %call = tail call noundef nonnull align 8 dereferenceable(8) ptr @_ZStlsISt11char_traitsIcEERSt13basic_ostreamIcT_ES5_PKc(ptr noundef nonnull align 8 dereferenceable(8) %out, ptr noundef nonnull @.str.1)
  %indvars.iv.next = add nuw nsw i64 %indvars.iv, 1
  %exitcond.not = icmp eq i64 %indvars.iv.next, %wide.trip.count
  br i1 %exitcond.not, label %for.end, label %for.body, !llvm.loop !11

for.end:                                          ; preds = %for.body, %entry
  ret void
}